; Function Attrs: nounwind uwtable
define ptr @l_Std_Time_Timestamp_toMinutes___boxed(ptr noundef %0) local_unnamed_addr #0 {
  %2 = getelementptr inbounds nuw i8, ptr %0, i64 8
  %3 = load ptr, ptr %2, align 8, !tbaa !4
  %4 = load ptr, ptr @l_Std_Time_Timestamp_toMinutes___closed__1, align 8, !tbaa !4
  %5 = ptrtoint ptr %3 to i64
  %6 = and i64 %5, 1
  %.not.i.i = icmp eq i64 %6, 0
  br i1 %.not.i.i, label %.critedge.i.i, label %7, !prof !8

7:                                                ; preds = %1
  %8 = ptrtoint ptr %4 to i64
  %9 = and i64 %8, 1
  %.not18.i.i = icmp eq i64 %9, 0
  br i1 %.not18.i.i, label %.critedge.i.i, label %10, !prof !8

10:                                               ; preds = %7
  %11 = lshr i64 %8, 1
  %12 = trunc i64 %11 to i32
  %13 = icmp eq i32 %12, 0
  br i1 %13, label %l_Std_Time_Timestamp_toMinutes.exit, label %14

14:                                               ; preds = %10
  %sext.i.i = shl i64 %11, 32
  %15 = ashr exact i64 %sext.i.i, 32
  %16 = shl i64 %5, 31
  %17 = ashr i64 %16, 32
  %18 = sdiv i64 %17, %15
  %19 = srem i64 %17, %15
  %20 = icmp slt i64 %19, 0
  %21 = icmp sgt i32 %12, 0
  %.v.i.i = select i1 %21, i64 -1, i64 1
  %22 = select i1 %20, i64 %.v.i.i, i64 0
  %.016.i.i = add nsw i64 %22, %18
  %23 = add nsw i64 %.016.i.i, 2147483648
  %24 = icmp ult i64 %23, 4294967296
  br i1 %24, label %25, label %30, !prof !14

25:                                               ; preds = %14
  %26 = shl nsw i64 %.016.i.i, 1
  %27 = and i64 %26, 8589934590
  %28 = or disjoint i64 %27, 1
  %29 = inttoptr i64 %28 to ptr
  br label %l_Std_Time_Timestamp_toMinutes.exit

30:                                               ; preds = %14
  %31 = tail call ptr @lean_big_int64_to_int(i64 noundef range(i64 -4611686016279904256, 4611686018427387905) %.016.i.i) #4
  br label %l_Std_Time_Timestamp_toMinutes.exit

.critedge.i.i:                                    ; preds = %7, %1
  %32 = tail call ptr @lean_int_big_ediv(ptr noundef %3, ptr noundef %4) #4
  br label %l_Std_Time_Timestamp_toMinutes.exit

l_Std_Time_Timestamp_toMinutes.exit:              ; preds = %10, %25, %30, %.critedge.i.i
  %.1.i.i = phi ptr [ %32, %.critedge.i.i ], [ inttoptr (i64 1 to ptr), %10 ], [ %29, %25 ], [ %31, %30 ]
  %33 = ptrtoint ptr %0 to i64
  %34 = and i64 %33, 1
  %.not = icmp eq i64 %34, 0
  br i1 %.not, label %35, label %lean_dec.exit

35:                                               ; preds = %l_Std_Time_Timestamp_toMinutes.exit
  %36 = load i32, ptr %0, align 4, !tbaa !11
  %37 = icmp sgt i32 %36, 1
  br i1 %37, label %38, label %40, !prof !14

38:                                               ; preds = %35
  %39 = add nsw i32 %36, -1
  store i32 %39, ptr %0, align 4, !tbaa !11
  br label %lean_dec.exit

40:                                               ; preds = %35
  %.not.i = icmp eq i32 %36, 0
  br i1 %.not.i, label %lean_dec.exit, label %41

41:                                               ; preds = %40
  tail call void @lean_dec_ref_cold(ptr noundef nonnull %0) #4
  br label %lean_dec.exit

lean_dec.exit:                                    ; preds = %41, %40, %38, %l_Std_Time_Timestamp_toMinutes.exit
  ret ptr %.1.i.i
}